target datalayout = "e-m:e-p270:32:32-p271:32:32-p272:64:64-i64:64-i128:128-f80:128-n8:16:32:64-S128"
target triple = "x86_64-pc-linux-gnu"

%struct.lxb_html_tree = type { ptr, ptr, ptr, ptr, ptr, ptr, ptr, %struct.lxb_html_tree_pending_table_t, ptr, i8, i8, i8, i8, i8, i8, ptr, ptr, ptr, i32, i64 }
%struct.lxb_html_tree_pending_table_t = type { ptr, i8 }

; Function Attrs: nounwind uwtable
define hidden ptr @lxb_html_tree_destroy(ptr noundef %0) #0 {
  %2 = alloca ptr, align 8
  %3 = alloca ptr, align 8
  store ptr %0, ptr %3, align 8
  %4 = load ptr, ptr %3, align 8
  %5 = icmp eq ptr %4, null
  br i1 %5, label %6, label %7

6:                                                ; preds = %1
  store ptr null, ptr %2, align 8
  br label %48

7:                                                ; preds = %1
  %8 = load ptr, ptr %3, align 8
  %9 = getelementptr inbounds %struct.lxb_html_tree, ptr %8, i32 0, i32 4
  %10 = load ptr, ptr %9, align 8
  %11 = call ptr @lexbor_array_destroy(ptr noundef %10, i1 noundef zeroext true)
  %12 = load ptr, ptr %3, align 8
  %13 = getelementptr inbounds %struct.lxb_html_tree, ptr %12, i32 0, i32 4
  store ptr %11, ptr %13, align 8
  %14 = load ptr, ptr %3, align 8
  %15 = getelementptr inbounds %struct.lxb_html_tree, ptr %14, i32 0, i32 5
  %16 = load ptr, ptr %15, align 8
  %17 = call ptr @lexbor_array_destroy(ptr noundef %16, i1 noundef zeroext true)
  %18 = load ptr, ptr %3, align 8
  %19 = getelementptr inbounds %struct.lxb_html_tree, ptr %18, i32 0, i32 5
  store ptr %17, ptr %19, align 8
  %20 = load ptr, ptr %3, align 8
  %21 = getelementptr inbounds %struct.lxb_html_tree, ptr %20, i32 0, i32 6
  %22 = load ptr, ptr %21, align 8
  %23 = call ptr @lexbor_array_obj_destroy(ptr noundef %22, i1 noundef zeroext true)
  %24 = load ptr, ptr %3, align 8
  %25 = getelementptr inbounds %struct.lxb_html_tree, ptr %24, i32 0, i32 6
  store ptr %23, ptr %25, align 8
  %26 = load ptr, ptr %3, align 8
  %27 = getelementptr inbounds %struct.lxb_html_tree, ptr %26, i32 0, i32 7
  %28 = getelementptr inbounds %struct.lxb_html_tree_pending_table_t, ptr %27, i32 0, i32 0
  %29 = load ptr, ptr %28, align 8
  %30 = call ptr @lexbor_array_obj_destroy(ptr noundef %29, i1 noundef zeroext true)
  %31 = load ptr, ptr %3, align 8
  %32 = getelementptr inbounds %struct.lxb_html_tree, ptr %31, i32 0, i32 7
  %33 = getelementptr inbounds %struct.lxb_html_tree_pending_table_t, ptr %32, i32 0, i32 0
  store ptr %30, ptr %33, align 8
  %34 = load ptr, ptr %3, align 8
  %35 = getelementptr inbounds %struct.lxb_html_tree, ptr %34, i32 0, i32 8
  %36 = load ptr, ptr %35, align 8
  %37 = call ptr @lexbor_array_obj_destroy(ptr noundef %36, i1 noundef zeroext true)
  %38 = load ptr, ptr %3, align 8
  %39 = getelementptr inbounds %struct.lxb_html_tree, ptr %38, i32 0, i32 8
  store ptr %37, ptr %39, align 8
  %40 = load ptr, ptr %3, align 8
  %41 = getelementptr inbounds %struct.lxb_html_tree, ptr %40, i32 0, i32 0
  %42 = load ptr, ptr %41, align 8
  %43 = call ptr @lxb_html_tokenizer_unref(ptr noundef %42)
  %44 = load ptr, ptr %3, align 8
  %45 = getelementptr inbounds %struct.lxb_html_tree, ptr %44, i32 0, i32 0
  store ptr %43, ptr %45, align 8
  %46 = load ptr, ptr %3, align 8
  %47 = call ptr @lexbor_free(ptr noundef %46)
  store ptr %47, ptr %2, align 8
  br label %48

48:                                               ; preds = %7, %6
  %49 = load ptr, ptr %2, align 8
  ret ptr %49
}

; Function Attrs: nounwind uwtable
define hidden ptr @lxb_html_tree_unref(ptr noundef %0) #0 {
  %2 = alloca ptr, align 8
  %3 = alloca ptr, align 8
  store ptr %0, ptr %3, align 8
  %4 = load ptr, ptr %3, align 8
  %5 = icmp eq ptr %4, null
  br i1 %5, label %11, label %6

6:                                                ; preds = %1
  %7 = load ptr, ptr %3, align 8
  %8 = getelementptr inbounds %struct.lxb_html_tree, ptr %7, i32 0, i32 19
  %9 = load i64, ptr %8, align 8
  %10 = icmp eq i64 %9, 0
  br i1 %10, label %11, label %12

11:                                               ; preds = %6, %1
  store ptr null, ptr %2, align 8
  br label %25

12:                                               ; preds = %6
  %13 = load ptr, ptr %3, align 8
  %14 = getelementptr inbounds %struct.lxb_html_tree, ptr %13, i32 0, i32 19
  %15 = load i64, ptr %14, align 8
  %16 = add i64 %15, -1
  store i64 %16, ptr %14, align 8
  %17 = load ptr, ptr %3, align 8
  %18 = getelementptr inbounds %struct.lxb_html_tree, ptr %17, i32 0, i32 19
  %19 = load i64, ptr %18, align 8
  %20 = icmp eq i64 %19, 0
  br i1 %20, label %21, label %24

21:                                               ; preds = %12
  %22 = load ptr, ptr %3, align 8
  %23 = call ptr @lxb_html_tree_destroy(ptr noundef %22)
  br label %24

24:                                               ; preds = %21, %12
  store ptr null, ptr %2, align 8
  br label %25

25:                                               ; preds = %24, %11
  %26 = load ptr, ptr %2, align 8
  ret ptr %26
}