; Function Attrs: nounwind uwtable
define hidden noalias noundef ptr @lxb_html_tree_unref(ptr noundef %0) local_unnamed_addr #0 {
  %2 = icmp eq ptr %0, null
  br i1 %2, label %28, label %3

3:                                                ; preds = %1
  %4 = getelementptr inbounds i8, ptr %0, i64 120
  %5 = load i64, ptr %4, align 8
  %6 = icmp eq i64 %5, 0
  br i1 %6, label %28, label %7

7:                                                ; preds = %3
  %8 = add i64 %5, -1
  store i64 %8, ptr %4, align 8
  %9 = icmp eq i64 %8, 0
  br i1 %9, label %lxb_html_tree_destroy.exit, label %28

lxb_html_tree_destroy.exit:                       ; preds = %7
  %10 = getelementptr inbounds i8, ptr %0, i64 32
  %11 = load ptr, ptr %10, align 8
  %12 = tail call ptr @lexbor_array_destroy(ptr noundef %11, i1 noundef zeroext true) #9
  store ptr %12, ptr %10, align 8
  %13 = getelementptr inbounds i8, ptr %0, i64 40
  %14 = load ptr, ptr %13, align 8
  %15 = tail call ptr @lexbor_array_destroy(ptr noundef %14, i1 noundef zeroext true) #9
  store ptr %15, ptr %13, align 8
  %16 = getelementptr inbounds i8, ptr %0, i64 48
  %17 = load ptr, ptr %16, align 8
  %18 = tail call ptr @lexbor_array_obj_destroy(ptr noundef %17, i1 noundef zeroext true) #9
  store ptr %18, ptr %16, align 8
  %19 = getelementptr inbounds i8, ptr %0, i64 56
  %20 = load ptr, ptr %19, align 8
  %21 = tail call ptr @lexbor_array_obj_destroy(ptr noundef %20, i1 noundef zeroext true) #9
  store ptr %21, ptr %19, align 8
  %22 = getelementptr inbounds i8, ptr %0, i64 72
  %23 = load ptr, ptr %22, align 8
  %24 = tail call ptr @lexbor_array_obj_destroy(ptr noundef %23, i1 noundef zeroext true) #9
  store ptr %24, ptr %22, align 8
  %25 = load ptr, ptr %0, align 8
  %26 = tail call ptr @lxb_html_tokenizer_unref(ptr noundef %25) #9
  store ptr %26, ptr %0, align 8
  %27 = tail call ptr @lexbor_free(ptr noundef nonnull %0) #9
  br label %28

28:                                               ; preds = %7, %lxb_html_tree_destroy.exit, %1, %3
  ret ptr null
}